target datalayout = "e-m:e-p270:32:32-p271:32:32-p272:64:64-i64:64-i128:128-f80:128-n8:16:32:64-S128"
target triple = "x86_64-pc-linux-gnu"

%struct.anon = type { i32, i32, i32, i32 }

@.str.17 = private unnamed_addr constant [25 x i8] c"../openssl/test/bntest.c\00", align 1
@ctx = internal global ptr null, align 8
@.str.75 = private unnamed_addr constant [2 x i8] c"c\00", align 1
@.str.88 = private unnamed_addr constant [2 x i8] c"d\00", align 1
@.str.89 = private unnamed_addr constant [41 x i8] c"a = set_signed_bn(signed_mod_tests[n].n)\00", align 1
@signed_mod_tests = internal global [4 x %struct.anon] [%struct.anon { i32 10, i32 3, i32 3, i32 1 }, %struct.anon { i32 -10, i32 3, i32 -3, i32 -1 }, %struct.anon { i32 10, i32 -3, i32 -3, i32 1 }, %struct.anon { i32 -10, i32 -3, i32 3, i32 -1 }], align 16
@.str.90 = private unnamed_addr constant [47 x i8] c"b = set_signed_bn(signed_mod_tests[n].divisor)\00", align 1
@.str.91 = private unnamed_addr constant [46 x i8] c"c = set_signed_bn(signed_mod_tests[n].result)\00", align 1
@.str.92 = private unnamed_addr constant [49 x i8] c"d = set_signed_bn(signed_mod_tests[n].remainder)\00", align 1
@.str.94 = private unnamed_addr constant [2 x i8] c"a\00", align 1
@.str.95 = private unnamed_addr constant [2 x i8] c"b\00", align 1
@.str.96 = private unnamed_addr constant [24 x i8] c"BN_div(b, a, a, b, ctx)\00", align 1

; Function Attrs: nounwind uwtable
define internal ptr @set_signed_bn(i32 noundef %0) #0 {
  %2 = alloca ptr, align 8
  %3 = alloca i32, align 4
  %4 = alloca ptr, align 8
  %5 = alloca i32, align 4
  store i32 %0, ptr %3, align 4, !tbaa !4
  call void @llvm.lifetime.start.p0(i64 8, ptr %4) #7
  %6 = call ptr @BN_new()
  store ptr %6, ptr %4, align 8, !tbaa !13
  %7 = load ptr, ptr %4, align 8, !tbaa !13
  %8 = icmp eq ptr %7, null
  br i1 %8, label %9, label %10

9:                                                ; preds = %1
  store ptr null, ptr %2, align 8
  store i32 1, ptr %5, align 4
  br label %32

10:                                               ; preds = %1
  %11 = load ptr, ptr %4, align 8, !tbaa !13
  %12 = load i32, ptr %3, align 4, !tbaa !4
  %13 = icmp slt i32 %12, 0
  br i1 %13, label %14, label %17

14:                                               ; preds = %10
  %15 = load i32, ptr %3, align 4, !tbaa !4
  %16 = sub nsw i32 0, %15
  br label %19

17:                                               ; preds = %10
  %18 = load i32, ptr %3, align 4, !tbaa !4
  br label %19

19:                                               ; preds = %17, %14
  %20 = phi i32 [ %16, %14 ], [ %18, %17 ]
  %21 = sext i32 %20 to i64
  %22 = call i32 @BN_set_word(ptr noundef %11, i64 noundef %21)
  %23 = icmp ne i32 %22, 0
  br i1 %23, label %26, label %24

24:                                               ; preds = %19
  %25 = load ptr, ptr %4, align 8, !tbaa !13
  call void @BN_free(ptr noundef %25)
  store ptr null, ptr %2, align 8
  store i32 1, ptr %5, align 4
  br label %32

26:                                               ; preds = %19
  %27 = load ptr, ptr %4, align 8, !tbaa !13
  %28 = load i32, ptr %3, align 4, !tbaa !4
  %29 = icmp slt i32 %28, 0
  %30 = zext i1 %29 to i32
  call void @BN_set_negative(ptr noundef %27, i32 noundef %30)
  %31 = load ptr, ptr %4, align 8, !tbaa !13
  store ptr %31, ptr %2, align 8
  store i32 1, ptr %5, align 4
  br label %32

32:                                               ; preds = %26, %24, %9
  call void @llvm.lifetime.end.p0(i64 8, ptr %4) #7
  %33 = load ptr, ptr %2, align 8
  ret ptr %33
}

; Function Attrs: nounwind uwtable
define internal i32 @test_signed_mod_replace_ba(i32 noundef %0) #0 {
  %2 = alloca i32, align 4
  %3 = alloca ptr, align 8
  %4 = alloca ptr, align 8
  %5 = alloca ptr, align 8
  %6 = alloca ptr, align 8
  %7 = alloca i32, align 4
  store i32 %0, ptr %2, align 4, !tbaa !4
  call void @llvm.lifetime.start.p0(i64 8, ptr %3) #7
  store ptr null, ptr %3, align 8, !tbaa !13
  call void @llvm.lifetime.start.p0(i64 8, ptr %4) #7
  store ptr null, ptr %4, align 8, !tbaa !13
  call void @llvm.lifetime.start.p0(i64 8, ptr %5) #7
  store ptr null, ptr %5, align 8, !tbaa !13
  call void @llvm.lifetime.start.p0(i64 8, ptr %6) #7
  store ptr null, ptr %6, align 8, !tbaa !13
  call void @llvm.lifetime.start.p0(i64 4, ptr %7) #7
  store i32 0, ptr %7, align 4, !tbaa !4
  %8 = load i32, ptr %2, align 4, !tbaa !4
  %9 = sext i32 %8 to i64
  %10 = getelementptr inbounds [4 x %struct.anon], ptr @signed_mod_tests, i64 0, i64 %9
  %11 = getelementptr inbounds nuw %struct.anon, ptr %10, i32 0, i32 0
  %12 = load i32, ptr %11, align 16, !tbaa !19
  %13 = call ptr @set_signed_bn(i32 noundef %12)
  store ptr %13, ptr %3, align 8, !tbaa !13
  %14 = call i32 @test_ptr(ptr noundef @.str.17, i32 noundef 373, ptr noundef @.str.89, ptr noundef %13)
  %15 = icmp ne i32 %14, 0
  br i1 %15, label %16, label %43

16:                                               ; preds = %1
  %17 = load i32, ptr %2, align 4, !tbaa !4
  %18 = sext i32 %17 to i64
  %19 = getelementptr inbounds [4 x %struct.anon], ptr @signed_mod_tests, i64 0, i64 %18
  %20 = getelementptr inbounds nuw %struct.anon, ptr %19, i32 0, i32 1
  %21 = load i32, ptr %20, align 4, !tbaa !21
  %22 = call ptr @set_signed_bn(i32 noundef %21)
  store ptr %22, ptr %4, align 8, !tbaa !13
  %23 = call i32 @test_ptr(ptr noundef @.str.17, i32 noundef 374, ptr noundef @.str.90, ptr noundef %22)
  %24 = icmp ne i32 %23, 0
  br i1 %24, label %25, label %43

25:                                               ; preds = %16
  %26 = load i32, ptr %2, align 4, !tbaa !4
  %27 = sext i32 %26 to i64
  %28 = getelementptr inbounds [4 x %struct.anon], ptr @signed_mod_tests, i64 0, i64 %27
  %29 = getelementptr inbounds nuw %struct.anon, ptr %28, i32 0, i32 2
  %30 = load i32, ptr %29, align 8, !tbaa !22
  %31 = call ptr @set_signed_bn(i32 noundef %30)
  store ptr %31, ptr %5, align 8, !tbaa !13
  %32 = call i32 @test_ptr(ptr noundef @.str.17, i32 noundef 375, ptr noundef @.str.91, ptr noundef %31)
  %33 = icmp ne i32 %32, 0
  br i1 %33, label %34, label %43

34:                                               ; preds = %25
  %35 = load i32, ptr %2, align 4, !tbaa !4
  %36 = sext i32 %35 to i64
  %37 = getelementptr inbounds [4 x %struct.anon], ptr @signed_mod_tests, i64 0, i64 %36
  %38 = getelementptr inbounds nuw %struct.anon, ptr %37, i32 0, i32 3
  %39 = load i32, ptr %38, align 4, !tbaa !23
  %40 = call ptr @set_signed_bn(i32 noundef %39)
  store ptr %40, ptr %6, align 8, !tbaa !13
  %41 = call i32 @test_ptr(ptr noundef @.str.17, i32 noundef 376, ptr noundef @.str.92, ptr noundef %40)
  %42 = icmp ne i32 %41, 0
  br i1 %42, label %44, label %43

43:                                               ; preds = %34, %25, %16, %1
  br label %67

44:                                               ; preds = %34
  %45 = load ptr, ptr %4, align 8, !tbaa !13
  %46 = load ptr, ptr %3, align 8, !tbaa !13
  %47 = load ptr, ptr %3, align 8, !tbaa !13
  %48 = load ptr, ptr %4, align 8, !tbaa !13
  %49 = load ptr, ptr @ctx, align 8, !tbaa !10
  %50 = call i32 @BN_div(ptr noundef %45, ptr noundef %46, ptr noundef %47, ptr noundef %48, ptr noundef %49)
  %51 = icmp ne i32 %50, 0
  %52 = zext i1 %51 to i32
  %53 = call i32 @test_true(ptr noundef @.str.17, i32 noundef 379, ptr noundef @.str.96, i32 noundef %52)
  %54 = icmp ne i32 %53, 0
  br i1 %54, label %55, label %66

55:                                               ; preds = %44
  %56 = load ptr, ptr %4, align 8, !tbaa !13
  %57 = load ptr, ptr %5, align 8, !tbaa !13
  %58 = call i32 @test_BN_eq(ptr noundef @.str.17, i32 noundef 380, ptr noundef @.str.95, ptr noundef @.str.75, ptr noundef %56, ptr noundef %57)
  %59 = icmp ne i32 %58, 0
  br i1 %59, label %60, label %66

60:                                               ; preds = %55
  %61 = load ptr, ptr %3, align 8, !tbaa !13
  %62 = load ptr, ptr %6, align 8, !tbaa !13
  %63 = call i32 @test_BN_eq(ptr noundef @.str.17, i32 noundef 381, ptr noundef @.str.94, ptr noundef @.str.88, ptr noundef %61, ptr noundef %62)
  %64 = icmp ne i32 %63, 0
  br i1 %64, label %65, label %66

65:                                               ; preds = %60
  store i32 1, ptr %7, align 4, !tbaa !4
  br label %66

66:                                               ; preds = %65, %60, %55, %44
  br label %67

67:                                               ; preds = %66, %43
  %68 = load ptr, ptr %3, align 8, !tbaa !13
  call void @BN_free(ptr noundef %68)
  %69 = load ptr, ptr %4, align 8, !tbaa !13
  call void @BN_free(ptr noundef %69)
  %70 = load ptr, ptr %5, align 8, !tbaa !13
  call void @BN_free(ptr noundef %70)
  %71 = load ptr, ptr %6, align 8, !tbaa !13
  call void @BN_free(ptr noundef %71)
  %72 = load i32, ptr %7, align 4, !tbaa !4
  call void @llvm.lifetime.end.p0(i64 4, ptr %7) #7
  call void @llvm.lifetime.end.p0(i64 8, ptr %6) #7
  call void @llvm.lifetime.end.p0(i64 8, ptr %5) #7
  call void @llvm.lifetime.end.p0(i64 8, ptr %4) #7
  call void @llvm.lifetime.end.p0(i64 8, ptr %3) #7
  ret i32 %72
}