; Function Attrs: nounwind uwtable
define internal range(i32 0, 2) i32 @test_signed_mod_replace_ba(i32 noundef %0) #1 {
  %2 = sext i32 %0 to i64
  %3 = getelementptr inbounds [4 x %struct.anon], ptr @signed_mod_tests, i64 0, i64 %2
  %4 = load i32, ptr %3, align 16, !tbaa !15
  %5 = tail call ptr @BN_new() #8
  %6 = icmp eq ptr %5, null
  br i1 %6, label %set_signed_bn.exit, label %7

7:                                                ; preds = %1
  %8 = tail call i32 @llvm.abs.i32(i32 %4, i1 true)
  %9 = zext nneg i32 %8 to i64
  %10 = tail call i32 @BN_set_word(ptr noundef nonnull %5, i64 noundef %9) #8
  %.not.i = icmp eq i32 %10, 0
  br i1 %.not.i, label %11, label %12

11:                                               ; preds = %7
  tail call void @BN_free(ptr noundef nonnull %5) #8
  br label %set_signed_bn.exit

12:                                               ; preds = %7
  %.lobit.i = lshr i32 %4, 31
  tail call void @BN_set_negative(ptr noundef nonnull %5, i32 noundef %.lobit.i) #8
  br label %set_signed_bn.exit

set_signed_bn.exit:                               ; preds = %1, %11, %12
  %.0.i = phi ptr [ %5, %12 ], [ null, %11 ], [ null, %1 ]
  %13 = tail call i32 @test_ptr(ptr noundef nonnull @.str.17, i32 noundef 373, ptr noundef nonnull @.str.89, ptr noundef %.0.i) #8
  %.not = icmp eq i32 %13, 0
  br i1 %.not, label %60, label %14

14:                                               ; preds = %set_signed_bn.exit
  %15 = getelementptr inbounds nuw i8, ptr %3, i64 4
  %16 = load i32, ptr %15, align 4, !tbaa !17
  %17 = tail call ptr @BN_new() #8
  %18 = icmp eq ptr %17, null
  br i1 %18, label %set_signed_bn.exit28, label %19

19:                                               ; preds = %14
  %20 = tail call i32 @llvm.abs.i32(i32 %16, i1 true)
  %21 = zext nneg i32 %20 to i64
  %22 = tail call i32 @BN_set_word(ptr noundef nonnull %17, i64 noundef %21) #8
  %.not.i25 = icmp eq i32 %22, 0
  br i1 %.not.i25, label %23, label %24

23:                                               ; preds = %19
  tail call void @BN_free(ptr noundef nonnull %17) #8
  br label %set_signed_bn.exit28

24:                                               ; preds = %19
  %.lobit.i26 = lshr i32 %16, 31
  tail call void @BN_set_negative(ptr noundef nonnull %17, i32 noundef %.lobit.i26) #8
  br label %set_signed_bn.exit28

set_signed_bn.exit28:                             ; preds = %14, %23, %24
  %.0.i27 = phi ptr [ %17, %24 ], [ null, %23 ], [ null, %14 ]
  %25 = tail call i32 @test_ptr(ptr noundef nonnull @.str.17, i32 noundef 374, ptr noundef nonnull @.str.90, ptr noundef %.0.i27) #8
  %.not19 = icmp eq i32 %25, 0
  br i1 %.not19, label %60, label %26

26:                                               ; preds = %set_signed_bn.exit28
  %27 = getelementptr inbounds nuw i8, ptr %3, i64 8
  %28 = load i32, ptr %27, align 8, !tbaa !18
  %29 = tail call ptr @BN_new() #8
  %30 = icmp eq ptr %29, null
  br i1 %30, label %set_signed_bn.exit32, label %31

31:                                               ; preds = %26
  %32 = tail call i32 @llvm.abs.i32(i32 %28, i1 true)
  %33 = zext nneg i32 %32 to i64
  %34 = tail call i32 @BN_set_word(ptr noundef nonnull %29, i64 noundef %33) #8
  %.not.i29 = icmp eq i32 %34, 0
  br i1 %.not.i29, label %35, label %36

35:                                               ; preds = %31
  tail call void @BN_free(ptr noundef nonnull %29) #8
  br label %set_signed_bn.exit32

36:                                               ; preds = %31
  %.lobit.i30 = lshr i32 %28, 31
  tail call void @BN_set_negative(ptr noundef nonnull %29, i32 noundef %.lobit.i30) #8
  br label %set_signed_bn.exit32

set_signed_bn.exit32:                             ; preds = %26, %35, %36
  %.0.i31 = phi ptr [ %29, %36 ], [ null, %35 ], [ null, %26 ]
  %37 = tail call i32 @test_ptr(ptr noundef nonnull @.str.17, i32 noundef 375, ptr noundef nonnull @.str.91, ptr noundef %.0.i31) #8
  %.not20 = icmp eq i32 %37, 0
  br i1 %.not20, label %60, label %38

38:                                               ; preds = %set_signed_bn.exit32
  %39 = getelementptr inbounds nuw i8, ptr %3, i64 12
  %40 = load i32, ptr %39, align 4, !tbaa !19
  %41 = tail call ptr @BN_new() #8
  %42 = icmp eq ptr %41, null
  br i1 %42, label %set_signed_bn.exit36, label %43

43:                                               ; preds = %38
  %44 = tail call i32 @llvm.abs.i32(i32 %40, i1 true)
  %45 = zext nneg i32 %44 to i64
  %46 = tail call i32 @BN_set_word(ptr noundef nonnull %41, i64 noundef %45) #8
  %.not.i33 = icmp eq i32 %46, 0
  br i1 %.not.i33, label %47, label %48

47:                                               ; preds = %43
  tail call void @BN_free(ptr noundef nonnull %41) #8
  br label %set_signed_bn.exit36

48:                                               ; preds = %43
  %.lobit.i34 = lshr i32 %40, 31
  tail call void @BN_set_negative(ptr noundef nonnull %41, i32 noundef %.lobit.i34) #8
  br label %set_signed_bn.exit36

set_signed_bn.exit36:                             ; preds = %38, %47, %48
  %.0.i35 = phi ptr [ %41, %48 ], [ null, %47 ], [ null, %38 ]
  %49 = tail call i32 @test_ptr(ptr noundef nonnull @.str.17, i32 noundef 376, ptr noundef nonnull @.str.92, ptr noundef %.0.i35) #8
  %.not21 = icmp eq i32 %49, 0
  br i1 %.not21, label %60, label %50

50:                                               ; preds = %set_signed_bn.exit36
  %51 = load ptr, ptr @ctx, align 8, !tbaa !6
  %52 = tail call i32 @BN_div(ptr noundef %.0.i27, ptr noundef %.0.i, ptr noundef %.0.i, ptr noundef %.0.i27, ptr noundef %51) #8
  %53 = icmp ne i32 %52, 0
  %54 = zext i1 %53 to i32
  %55 = tail call i32 @test_true(ptr noundef nonnull @.str.17, i32 noundef 379, ptr noundef nonnull @.str.96, i32 noundef %54) #8
  %.not22 = icmp eq i32 %55, 0
  br i1 %.not22, label %60, label %56

56:                                               ; preds = %50
  %57 = tail call i32 @test_BN_eq(ptr noundef nonnull @.str.17, i32 noundef 380, ptr noundef nonnull @.str.95, ptr noundef nonnull @.str.75, ptr noundef %.0.i27, ptr noundef %.0.i31) #8
  %.not23 = icmp eq i32 %57, 0
  br i1 %.not23, label %60, label %58

58:                                               ; preds = %56
  %59 = tail call i32 @test_BN_eq(ptr noundef nonnull @.str.17, i32 noundef 381, ptr noundef nonnull @.str.94, ptr noundef nonnull @.str.88, ptr noundef %.0.i, ptr noundef %.0.i35) #8
  %.not24 = icmp ne i32 %59, 0
  %spec.select = zext i1 %.not24 to i32
  br label %60

60:                                               ; preds = %58, %50, %56, %set_signed_bn.exit, %set_signed_bn.exit28, %set_signed_bn.exit32, %set_signed_bn.exit36
  %.018 = phi ptr [ %.0.i27, %56 ], [ %.0.i27, %50 ], [ %.0.i27, %set_signed_bn.exit36 ], [ %.0.i27, %set_signed_bn.exit32 ], [ %.0.i27, %set_signed_bn.exit28 ], [ null, %set_signed_bn.exit ], [ %.0.i27, %58 ]
  %.017 = phi ptr [ %.0.i31, %56 ], [ %.0.i31, %50 ], [ %.0.i31, %set_signed_bn.exit36 ], [ %.0.i31, %set_signed_bn.exit32 ], [ null, %set_signed_bn.exit28 ], [ null, %set_signed_bn.exit ], [ %.0.i31, %58 ]
  %.016 = phi ptr [ %.0.i35, %56 ], [ %.0.i35, %50 ], [ %.0.i35, %set_signed_bn.exit36 ], [ null, %set_signed_bn.exit32 ], [ null, %set_signed_bn.exit28 ], [ null, %set_signed_bn.exit ], [ %.0.i35, %58 ]
  %.0 = phi i32 [ 0, %56 ], [ 0, %50 ], [ 0, %set_signed_bn.exit36 ], [ 0, %set_signed_bn.exit32 ], [ 0, %set_signed_bn.exit28 ], [ 0, %set_signed_bn.exit ], [ %spec.select, %58 ]
  tail call void @BN_free(ptr noundef %.0.i) #8
  tail call void @BN_free(ptr noundef %.018) #8
  tail call void @BN_free(ptr noundef %.017) #8
  tail call void @BN_free(ptr noundef %.016) #8
  ret i32 %.0
}